#include <math.h>
#include <stdio.h>
#include <stdlib.h>
#include <string.h>

int main(){
	int m,n;
	double r;
	scanf("%d",&m);
	int i,j;
	for(i=0;i<m;i++){
		r=0;
		scanf("%d",&n);
		double f0,f1,f2;
		f0=2;f1=1;
		if(n==1){
			printf("%.3lf\n",f0/f1);
		}else{
			for(j=0;j<n;j++){
				f2=f0/f1;
				f0=f1+f0;
				f1=f2*f1;
				r+=f2;
			}
			printf("%.3lf\n",r);
		}
	}
	return 0;
}