; ModuleID = '29/70.c'
source_filename = "29/70.c"
target datalayout = "e-m:e-p270:32:32-p271:32:32-p272:64:64-i64:64-f80:128-n8:16:32:64-S128"
target triple = "x86_64-pc-linux-gnu"

@.str = private unnamed_addr constant [3 x i8] c"%d\00", align 1
@.str.1 = private unnamed_addr constant [7 x i8] c"%.3lf\0A\00", align 1

; Function Attrs: noinline nounwind uwtable
define dso_local i32 @main() #0 {
  %1 = alloca i32, align 4
  %2 = alloca i32, align 4
  %3 = alloca i32, align 4
  %4 = alloca double, align 8
  %5 = alloca i32, align 4
  %6 = alloca i32, align 4
  %7 = alloca double, align 8
  %8 = alloca double, align 8
  %9 = alloca double, align 8
  store i32 0, i32* %1, align 4
  %10 = call i32 (i8*, ...) @__isoc99_scanf(i8* getelementptr inbounds ([3 x i8], [3 x i8]* @.str, i64 0, i64 0), i32* %2)
  store i32 0, i32* %5, align 4
  br label %11

11:                                               ; preds = %49, %0
  %12 = load i32, i32* %5, align 4
  %13 = load i32, i32* %2, align 4
  %14 = icmp slt i32 %12, %13
  br i1 %14, label %15, label %52

15:                                               ; preds = %11
  store double 0.000000e+00, double* %4, align 8
  %16 = call i32 (i8*, ...) @__isoc99_scanf(i8* getelementptr inbounds ([3 x i8], [3 x i8]* @.str, i64 0, i64 0), i32* %3)
  store double 2.000000e+00, double* %7, align 8
  store double 1.000000e+00, double* %8, align 8
  %17 = load i32, i32* %3, align 4
  %18 = icmp eq i32 %17, 1
  br i1 %18, label %19, label %24

19:                                               ; preds = %15
  %20 = load double, double* %7, align 8
  %21 = load double, double* %8, align 8
  %22 = fdiv double %20, %21
  %23 = call i32 (i8*, ...) @printf(i8* getelementptr inbounds ([7 x i8], [7 x i8]* @.str.1, i64 0, i64 0), double %22)
  br label %48

24:                                               ; preds = %15
  store i32 0, i32* %6, align 4
  br label %25

25:                                               ; preds = %42, %24
  %26 = load i32, i32* %6, align 4
  %27 = load i32, i32* %3, align 4
  %28 = icmp slt i32 %26, %27
  br i1 %28, label %29, label %45

29:                                               ; preds = %25
  %30 = load double, double* %7, align 8
  %31 = load double, double* %8, align 8
  %32 = fdiv double %30, %31
  store double %32, double* %9, align 8
  %33 = load double, double* %8, align 8
  %34 = load double, double* %7, align 8
  %35 = fadd double %33, %34
  store double %35, double* %7, align 8
  %36 = load double, double* %9, align 8
  %37 = load double, double* %8, align 8
  %38 = fmul double %36, %37
  store double %38, double* %8, align 8
  %39 = load double, double* %9, align 8
  %40 = load double, double* %4, align 8
  %41 = fadd double %40, %39
  store double %41, double* %4, align 8
  br label %42

42:                                               ; preds = %29
  %43 = load i32, i32* %6, align 4
  %44 = add nsw i32 %43, 1
  store i32 %44, i32* %6, align 4
  br label %25

45:                                               ; preds = %25
  %46 = load double, double* %4, align 8
  %47 = call i32 (i8*, ...) @printf(i8* getelementptr inbounds ([7 x i8], [7 x i8]* @.str.1, i64 0, i64 0), double %46)
  br label %48

48:                                               ; preds = %45, %19
  br label %49

49:                                               ; preds = %48
  %50 = load i32, i32* %5, align 4
  %51 = add nsw i32 %50, 1
  store i32 %51, i32* %5, align 4
  br label %11

52:                                               ; preds = %11
  ret i32 0
}

declare dso_local i32 @__isoc99_scanf(i8*, ...) #1

declare dso_local i32 @printf(i8*, ...) #1


!llvm.module.flags = !{!0}
!llvm.ident = !{!1}

!0 = !{i32 1, !"wchar_size", i32 4}
!1 = !{!"clang version 10.0.0-4ubuntu1 "}
